; Function Attrs: nounwind uwtable
define hidden ptr @_PyAsyncGenValueWrapperNew(ptr noundef readnone captures(none) %0, ptr noundef %1) local_unnamed_addr #2 {
  %3 = tail call align 8 ptr @llvm.threadlocal.address.p0(ptr align 8 @_Py_tss_tstate)
  %4 = load ptr, ptr %3, align 8, !tbaa !39
  %5 = getelementptr inbounds nuw i8, ptr %4, i64 16
  %6 = load ptr, ptr %5, align 8, !tbaa !41
  %7 = getelementptr inbounds nuw i8, ptr %6, i64 11496
  %8 = load ptr, ptr %7, align 8, !tbaa !165
  %.not.i.i = icmp eq ptr %8, null
  br i1 %.not.i.i, label %13, label %_PyFreeList_Pop.exit

_PyFreeList_Pop.exit:                             ; preds = %2
  %9 = load ptr, ptr %8, align 8, !tbaa !143
  store ptr %9, ptr %7, align 8, !tbaa !165
  %10 = getelementptr inbounds nuw i8, ptr %6, i64 11504
  %11 = load i64, ptr %10, align 8, !tbaa !164
  %12 = add i64 %11, -1
  store i64 %12, ptr %10, align 8, !tbaa !164
  tail call void @_Py_NewReference(ptr noundef nonnull %8) #8
  br label %16

13:                                               ; preds = %2
  %14 = tail call ptr @_PyObject_GC_New(ptr noundef nonnull @_PyAsyncGenWrappedValue_Type) #8
  %15 = icmp eq ptr %14, null
  br i1 %15, label %44, label %16

16:                                               ; preds = %_PyFreeList_Pop.exit, %13
  %.0 = phi ptr [ %14, %13 ], [ %8, %_PyFreeList_Pop.exit ]
  %17 = load i32, ptr %1, align 8, !tbaa !4
  %18 = icmp slt i32 %17, 0
  br i1 %18, label %_Py_NewRef.exit, label %19

19:                                               ; preds = %16
  %20 = add nuw i32 %17, 1
  store i32 %20, ptr %1, align 8, !tbaa !4
  br label %_Py_NewRef.exit

_Py_NewRef.exit:                                  ; preds = %16, %19
  %21 = getelementptr inbounds nuw i8, ptr %.0, i64 16
  store ptr %1, ptr %21, align 8, !tbaa !171
  %22 = getelementptr i8, ptr %.0, i64 -16
  %23 = load ptr, ptr %3, align 8, !tbaa !39
  %24 = getelementptr inbounds nuw i8, ptr %23, i64 16
  %25 = load ptr, ptr %24, align 8, !tbaa !41
  %26 = getelementptr inbounds nuw i8, ptr %25, i64 7424
  %27 = getelementptr inbounds nuw i8, ptr %25, i64 7432
  %28 = load i64, ptr %27, align 8, !tbaa !35
  %29 = inttoptr i64 %28 to ptr
  %30 = ptrtoint ptr %22 to i64
  %31 = load i64, ptr %29, align 8, !tbaa !37
  %32 = and i64 %31, 3
  %33 = or i64 %32, %30
  store i64 %33, ptr %29, align 8, !tbaa !37
  %34 = getelementptr i8, ptr %.0, i64 -8
  %35 = load i64, ptr %34, align 8, !tbaa !35
  %36 = and i64 %35, 3
  %37 = or i64 %36, %28
  store i64 %37, ptr %34, align 8, !tbaa !35
  %38 = getelementptr inbounds nuw i8, ptr %25, i64 7632
  %39 = load i32, ptr %38, align 8, !tbaa !47
  %40 = xor i32 %39, 1
  %41 = sext i32 %40 to i64
  %42 = ptrtoint ptr %26 to i64
  %43 = or i64 %41, %42
  store i64 %43, ptr %22, align 8, !tbaa !37
  store i64 %30, ptr %27, align 8, !tbaa !35
  br label %44

44:                                               ; preds = %13, %_Py_NewRef.exit
  %.07 = phi ptr [ %.0, %_Py_NewRef.exit ], [ null, %13 ]
  ret ptr %.07
}